; Function Attrs: mustprogress uwtable
define void @_ZNK15ColumnListModel9mimeTypesEv(ptr dead_on_unwind noalias nocapture writable writeonly sret(%class.QList.8) align 8 %0, ptr nocapture noundef nonnull readnone align 8 dereferenceable(16) %1) unnamed_addr #2 align 2 personality ptr @__gxx_personality_v0 {
  %3 = alloca %class.QList.8, align 8
  %4 = getelementptr inbounds i8, ptr %3, i64 16
  call void @llvm.memset.p0.i64(ptr noundef nonnull align 8 dereferenceable(24) %3, i8 0, i64 24, i1 false)
  invoke void @_ZN9QtPrivate16QMovableArrayOpsI7QStringE7emplaceIJRKS1_EEEvxDpOT_(ptr noundef nonnull align 8 dereferenceable(24) %3, i64 noundef 0, ptr noundef nonnull align 8 dereferenceable(24) @_ZN17WiresharkMimeData18ColumnListMimeTypeE)
          to label %_ZN5QListI7QStringElsERKS0_.exit unwind label %23

_ZN5QListI7QStringElsERKS0_.exit:                 ; preds = %2
  %5 = load ptr, ptr %3, align 8
  store ptr %5, ptr %0, align 8
  %6 = getelementptr inbounds i8, ptr %0, i64 8
  %7 = getelementptr inbounds i8, ptr %3, i64 8
  %8 = load ptr, ptr %7, align 8
  store ptr %8, ptr %6, align 8
  %9 = getelementptr inbounds i8, ptr %0, i64 16
  %10 = load i64, ptr %4, align 8
  store i64 %10, ptr %9, align 8
  %.not.i.i.i = icmp eq ptr %5, null
  br i1 %.not.i.i.i, label %_ZN5QListI7QStringED2Ev.exit, label %_ZN5QListI7QStringEC2ERKS1_.exit

_ZN5QListI7QStringEC2ERKS1_.exit:                 ; preds = %_ZN5QListI7QStringElsERKS0_.exit
  %11 = atomicrmw add ptr %5, i32 1 seq_cst, align 4
  %.pre = load ptr, ptr %3, align 8
  %.not.i.i.i1 = icmp eq ptr %.pre, null
  br i1 %.not.i.i.i1, label %_ZN5QListI7QStringED2Ev.exit, label %_ZN17QArrayDataPointerI7QStringE5derefEv.exit.i.i

_ZN17QArrayDataPointerI7QStringE5derefEv.exit.i.i: ; preds = %_ZN5QListI7QStringEC2ERKS1_.exit
  %12 = atomicrmw sub ptr %.pre, i32 1 seq_cst, align 4
  %.not.i.i = icmp eq i32 %12, 1
  br i1 %.not.i.i, label %13, label %_ZN5QListI7QStringED2Ev.exit

13:                                               ; preds = %_ZN17QArrayDataPointerI7QStringE5derefEv.exit.i.i
  %14 = load ptr, ptr %7, align 8
  %15 = load i64, ptr %4, align 8
  %16 = getelementptr %class.QString, ptr %14, i64 %15
  %.idx.i.i.i = mul i64 %15, 24
  %.not4.i.i.i.i.i.i = icmp eq i64 %.idx.i.i.i, 0
  br i1 %.not4.i.i.i.i.i.i, label %_ZN9QtPrivate16QGenericArrayOpsI7QStringE10destroyAllEv.exit.i.i, label %.lr.ph.i.i.i.i.i.i

.lr.ph.i.i.i.i.i.i:                               ; preds = %13, %_ZSt8_DestroyI7QStringEvPT_.exit.i.i.i.i.i.i
  %.05.i.i.i.i.i.i = phi ptr [ %21, %_ZSt8_DestroyI7QStringEvPT_.exit.i.i.i.i.i.i ], [ %14, %13 ]
  %17 = load ptr, ptr %.05.i.i.i.i.i.i, align 8
  %.not.i.i.i.i.i.i.i.i.i.i = icmp eq ptr %17, null
  br i1 %.not.i.i.i.i.i.i.i.i.i.i, label %_ZSt8_DestroyI7QStringEvPT_.exit.i.i.i.i.i.i, label %_ZN17QArrayDataPointerIDsE5derefEv.exit.i.i.i.i.i.i.i.i.i

_ZN17QArrayDataPointerIDsE5derefEv.exit.i.i.i.i.i.i.i.i.i: ; preds = %.lr.ph.i.i.i.i.i.i
  %18 = atomicrmw sub ptr %17, i32 1 seq_cst, align 4
  %.not.i.i.i.i.i.i.i.i.i = icmp eq i32 %18, 1
  br i1 %.not.i.i.i.i.i.i.i.i.i, label %19, label %_ZSt8_DestroyI7QStringEvPT_.exit.i.i.i.i.i.i

19:                                               ; preds = %_ZN17QArrayDataPointerIDsE5derefEv.exit.i.i.i.i.i.i.i.i.i
  %20 = load ptr, ptr %.05.i.i.i.i.i.i, align 8
  call void @_ZN10QArrayData10deallocateEPS_xx(ptr noundef %20, i64 noundef 2, i64 noundef 8) #20
  br label %_ZSt8_DestroyI7QStringEvPT_.exit.i.i.i.i.i.i

_ZSt8_DestroyI7QStringEvPT_.exit.i.i.i.i.i.i:     ; preds = %19, %_ZN17QArrayDataPointerIDsE5derefEv.exit.i.i.i.i.i.i.i.i.i, %.lr.ph.i.i.i.i.i.i
  %21 = getelementptr i8, ptr %.05.i.i.i.i.i.i, i64 24
  %.not.i.i.i.i.i.i = icmp eq ptr %21, %16
  br i1 %.not.i.i.i.i.i.i, label %_ZN9QtPrivate16QGenericArrayOpsI7QStringE10destroyAllEv.exit.i.i, label %.lr.ph.i.i.i.i.i.i, !llvm.loop !66

_ZN9QtPrivate16QGenericArrayOpsI7QStringE10destroyAllEv.exit.i.i: ; preds = %_ZSt8_DestroyI7QStringEvPT_.exit.i.i.i.i.i.i, %13
  %22 = load ptr, ptr %3, align 8
  call void @_ZN10QArrayData10deallocateEPS_xx(ptr noundef %22, i64 noundef 24, i64 noundef 8) #20
  br label %_ZN5QListI7QStringED2Ev.exit

_ZN5QListI7QStringED2Ev.exit:                     ; preds = %_ZN5QListI7QStringElsERKS0_.exit, %_ZN5QListI7QStringEC2ERKS1_.exit, %_ZN17QArrayDataPointerI7QStringE5derefEv.exit.i.i, %_ZN9QtPrivate16QGenericArrayOpsI7QStringE10destroyAllEv.exit.i.i
  ret void

23:                                               ; preds = %2
  %24 = landingpad { ptr, i32 }
          cleanup
  call void @_ZN5QListI7QStringED2Ev(ptr noundef nonnull align 8 dereferenceable(24) %3) #20
  resume { ptr, i32 } %24
}